Certificate:
    Data:
        Version: 3 (0x2)
        Serial Number: 4099 (0x1003)
        Signature Algorithm: ecdsa-with-SHA256
        Issuer: C=DE, O=Nachweis Demo Trust, CN=Nachweis Demo wrpac-provider
        Validity
            Not Before: Jul 10 23:08:19 2026 GMT
            Not After : Jul 10 23:08:19 2027 GMT
        Subject: C=DE, O=Quellkern Demo, OU=nachweis, CN=Nachweis Demo Verifier/organizationIdentifier=NTRDE-NACHWEIS-DEMO-0001
        Subject Public Key Info:
            Public Key Algorithm: id-ecPublicKey
                Public-Key: (256 bit)
                pub:
                    04:2d:57:e1:c1:03:63:04:65:4d:16:da:aa:c1:31:
                    c4:d4:c3:7f:76:70:7e:cb:a4:70:36:f8:09:24:51:
                    d1:be:21:01:2e:f9:8b:21:d9:e2:8b:94:f4:18:f0:
                    15:ec:19:5e:02:2e:2f:ec:fc:ae:a4:dc:7f:15:cc:
                    66:64:2e:81:fb
                ASN1 OID: prime256v1
                NIST CURVE: P-256
        X509v3 extensions:
            X509v3 Basic Constraints: critical
                CA:FALSE
            X509v3 Key Usage: critical
                Digital Signature
            X509v3 Extended Key Usage: 
                TLS Web Client Authentication
            X509v3 Subject Key Identifier: 
                1A:74:16:FF:37:42:AE:40:35:C6:76:C9:88:81:2C:50:68:9B:2E:72
            X509v3 Authority Key Identifier: 
                44:B4:35:5C:80:22:C6:14:FB:EA:16:3C:F6:60:7A:FC:F4:24:89:0D
            X509v3 Subject Alternative Name: 
                URI:https://verifier-sandbox.nachweis.tech/
            X509v3 CRL Distribution Points: 
                Full Name:
                  URI:https://verifier-sandbox.nachweis.tech/trust/wrpac/wrpac-provider.crl.der

    Signature Algorithm: ecdsa-with-SHA256
    Signature Value:
        30:45:02:21:00:85:02:1d:0a:e6:89:43:c7:04:bf:03:b9:7a:
        c7:6f:d8:31:30:fe:e6:6c:9d:8c:30:4b:9d:3b:55:a9:50:19:
        dc:02:20:20:c2:0d:11:39:a2:0e:da:10:80:97:17:26:fe:d5:
        b9:7f:e5:5b:09:f4:62:8f:bf:ca:e2:f7:0b:4f:8e:21:f4
-----BEGIN CERTIFICATE-----
MIICyDCCAm6gAwIBAgICEAMwCgYIKoZIzj0EAwIwUjELMAkGA1UEBhMCREUxHDAa
BgNVBAoME05hY2h3ZWlzIERlbW8gVHJ1c3QxJTAjBgNVBAMMHE5hY2h3ZWlzIERl
bW8gd3JwYWMtcHJvdmlkZXIwHhcNMjYwNzEwMjMwODE5WhcNMjcwNzEwMjMwODE5
WjB9MQswCQYDVQQGEwJERTEXMBUGA1UECgwOUXVlbGxrZXJuIERlbW8xETAPBgNV
BAsMCG5hY2h3ZWlzMR8wHQYDVQQDDBZOYWNod2VpcyBEZW1vIFZlcmlmaWVyMSEw
HwYDVQRhDBhOVFJERS1OQUNIV0VJUy1ERU1PLTAwMDEwWTATBgcqhkjOPQIBBggq
hkjOPQMBBwNCAAQtV+HBA2MEZU0W2qrBMcTUw392cH7LpHA2+AkkUdG+IQEu+Ysh
2eKLlPQY8BXsGV4CLi/s/K6k3H8VzGZkLoH7o4IBBzCCAQMwDAYDVR0TAQH/BAIw
ADAOBgNVHQ8BAf8EBAMCB4AwEwYDVR0lBAwwCgYIKwYBBQUHAwIwHQYDVR0OBBYE
FBp0Fv83Qq5ANcZ2yYiBLFBomy5yMB8GA1UdIwQYMBaAFES0NVyAIsYU++oWPPZg
evz0JIkNMDIGA1UdEQQrMCmGJ2h0dHBzOi8vdmVyaWZpZXItc2FuZGJveC5uYWNo
d2Vpcy50ZWNoLzBaBgNVHR8EUzBRME+gTaBLhklodHRwczovL3ZlcmlmaWVyLXNh
bmRib3gubmFjaHdlaXMudGVjaC90cnVzdC93cnBhYy93cnBhYy1wcm92aWRlci5j
cmwuZGVyMAoGCCqGSM49BAMCA0gAMEUCIQCFAh0K5olDxwS/A7l6x2/YMTD+5myd
jDBLnTtVqVAZ3AIgIMINETmiDtoQgJcXJv7VuX/lWwn0Yo+/yuL3C0+OIfQ=
-----END CERTIFICATE-----
